target datalayout = "e-m:e-p270:32:32-p271:32:32-p272:64:64-i64:64-i128:128-f80:128-n8:16:32:64-S128"
target triple = "x86_64-pc-linux-gnu"

%struct.Node = type { i32 }
%struct.Var = type { %struct.Expr, i32, i16, i32, i32, i32, ptr, i32, i32, i32, i16, i32 }
%struct.Expr = type { i32 }
%struct.Const = type { %struct.Expr, i32, i32, i32, i32, i64, i8, i8, i32 }
%struct.Param = type { %struct.Expr, i32, i32, i32, i32, i32, i32 }
%struct.Aggref = type { %struct.Expr, i32, i32, i32, i32, i32, ptr, ptr, ptr, ptr, ptr, ptr, i8, i8, i8, i8, i32, i32, i32, i32, i32 }
%struct.WindowFunc = type { %struct.Expr, i32, i32, i32, i32, ptr, ptr, ptr, i32, i8, i8, i32 }
%struct.MergeSupportFunc = type { %struct.Expr, i32, i32, i32 }
%struct.SubscriptingRef = type { %struct.Expr, i32, i32, i32, i32, i32, ptr, ptr, ptr, ptr }
%struct.FuncExpr = type { %struct.Expr, i32, i32, i8, i8, i32, i32, i32, ptr, i32 }
%struct.OpExpr = type { %struct.Expr, i32, i32, i32, i8, i32, i32, ptr, i32 }
%struct.FieldSelect = type { %struct.Expr, ptr, i16, i32, i32, i32 }
%struct.RelabelType = type { %struct.Expr, ptr, i32, i32, i32, i32, i32 }
%struct.CoerceViaIO = type { %struct.Expr, ptr, i32, i32, i32, i32 }
%struct.ArrayCoerceExpr = type { %struct.Expr, ptr, ptr, i32, i32, i32, i32, i32 }
%struct.CaseExpr = type { %struct.Expr, i32, i32, ptr, ptr, ptr, i32 }
%struct.ArrayExpr = type { %struct.Expr, i32, i32, i32, ptr, i8, i32 }
%struct.CoalesceExpr = type { %struct.Expr, i32, i32, ptr, i32 }
%struct.MinMaxExpr = type { %struct.Expr, i32, i32, i32, i32, ptr, i32 }
%struct.JsonValueExpr = type { i32, ptr, ptr, ptr }
%struct.JsonConstructorExpr = type { %struct.Expr, i32, ptr, ptr, ptr, ptr, i8, i8, i32 }
%struct.JsonExpr = type { %struct.Expr, i32, ptr, ptr, ptr, ptr, ptr, ptr, ptr, ptr, ptr, i8, i8, i32, i8, i32, i32 }
%struct.JsonBehavior = type { i32, i32, ptr, i8, i32 }
%struct.CoerceToDomain = type { %struct.Expr, ptr, i32, i32, i32, i32, i32 }
%struct.CoerceToDomainValue = type { %struct.Expr, i32, i32, i32, i32 }
%struct.SetToDefault = type { %struct.Expr, i32, i32, i32, i32 }

@.str.1 = private unnamed_addr constant [12 x i8] c"nodeFuncs.c\00", align 1
@.str.3 = private unnamed_addr constant [27 x i8] c"unrecognized node type: %d\00", align 1
@__func__.exprSetCollation = private unnamed_addr constant [17 x i8] c"exprSetCollation\00", align 1

; Function Attrs: nounwind uwtable
define dso_local void @exprSetCollation(ptr noundef %0, i32 noundef %1) #0 {
  %3 = alloca ptr, align 8
  %4 = alloca i32, align 4
  %5 = alloca ptr, align 8
  %6 = alloca ptr, align 8
  %7 = alloca ptr, align 8
  store ptr %0, ptr %3, align 8
  store i32 %1, ptr %4, align 4
  %8 = load ptr, ptr %3, align 8
  %9 = getelementptr inbounds nuw %struct.Node, ptr %8, i32 0, i32 0
  %10 = load i32, ptr %9, align 4
  switch i32 %10, label %149 [
    i32 6, label %11
    i32 7, label %15
    i32 8, label %19
    i32 9, label %23
    i32 10, label %27
    i32 11, label %28
    i32 13, label %32
    i32 14, label %36
    i32 15, label %40
    i32 16, label %44
    i32 17, label %45
    i32 18, label %49
    i32 19, label %53
    i32 20, label %57
    i32 21, label %58
    i32 22, label %162
    i32 25, label %59
    i32 26, label %63
    i32 27, label %64
    i32 28, label %68
    i32 29, label %72
    i32 30, label %76
    i32 32, label %77
    i32 35, label %81
    i32 36, label %85
    i32 37, label %86
    i32 38, label %87
    i32 39, label %91
    i32 40, label %95
    i32 41, label %96
    i32 44, label %97
    i32 45, label %102
    i32 46, label %115
    i32 48, label %116
    i32 47, label %121
    i32 52, label %133
    i32 53, label %134
    i32 55, label %135
    i32 56, label %139
    i32 57, label %143
    i32 58, label %147
    i32 59, label %148
  ]

11:                                               ; preds = %2
  %12 = load i32, ptr %4, align 4
  %13 = load ptr, ptr %3, align 8
  %14 = getelementptr inbounds nuw %struct.Var, ptr %13, i32 0, i32 5
  store i32 %12, ptr %14, align 4
  br label %162

15:                                               ; preds = %2
  %16 = load i32, ptr %4, align 4
  %17 = load ptr, ptr %3, align 8
  %18 = getelementptr inbounds nuw %struct.Const, ptr %17, i32 0, i32 3
  store i32 %16, ptr %18, align 4
  br label %162

19:                                               ; preds = %2
  %20 = load i32, ptr %4, align 4
  %21 = load ptr, ptr %3, align 8
  %22 = getelementptr inbounds nuw %struct.Param, ptr %21, i32 0, i32 5
  store i32 %20, ptr %22, align 4
  br label %162

23:                                               ; preds = %2
  %24 = load i32, ptr %4, align 4
  %25 = load ptr, ptr %3, align 8
  %26 = getelementptr inbounds nuw %struct.Aggref, ptr %25, i32 0, i32 3
  store i32 %24, ptr %26, align 4
  br label %162

27:                                               ; preds = %2
  br label %162

28:                                               ; preds = %2
  %29 = load i32, ptr %4, align 4
  %30 = load ptr, ptr %3, align 8
  %31 = getelementptr inbounds nuw %struct.WindowFunc, ptr %30, i32 0, i32 3
  store i32 %29, ptr %31, align 4
  br label %162

32:                                               ; preds = %2
  %33 = load i32, ptr %4, align 4
  %34 = load ptr, ptr %3, align 8
  %35 = getelementptr inbounds nuw %struct.MergeSupportFunc, ptr %34, i32 0, i32 2
  store i32 %33, ptr %35, align 4
  br label %162

36:                                               ; preds = %2
  %37 = load i32, ptr %4, align 4
  %38 = load ptr, ptr %3, align 8
  %39 = getelementptr inbounds nuw %struct.SubscriptingRef, ptr %38, i32 0, i32 5
  store i32 %37, ptr %39, align 4
  br label %162

40:                                               ; preds = %2
  %41 = load i32, ptr %4, align 4
  %42 = load ptr, ptr %3, align 8
  %43 = getelementptr inbounds nuw %struct.FuncExpr, ptr %42, i32 0, i32 6
  store i32 %41, ptr %43, align 4
  br label %162

44:                                               ; preds = %2
  br label %162

45:                                               ; preds = %2
  %46 = load i32, ptr %4, align 4
  %47 = load ptr, ptr %3, align 8
  %48 = getelementptr inbounds nuw %struct.OpExpr, ptr %47, i32 0, i32 5
  store i32 %46, ptr %48, align 4
  br label %162

49:                                               ; preds = %2
  %50 = load i32, ptr %4, align 4
  %51 = load ptr, ptr %3, align 8
  %52 = getelementptr inbounds nuw %struct.OpExpr, ptr %51, i32 0, i32 5
  store i32 %50, ptr %52, align 4
  br label %162

53:                                               ; preds = %2
  %54 = load i32, ptr %4, align 4
  %55 = load ptr, ptr %3, align 8
  %56 = getelementptr inbounds nuw %struct.OpExpr, ptr %55, i32 0, i32 5
  store i32 %54, ptr %56, align 4
  br label %162

57:                                               ; preds = %2
  br label %162

58:                                               ; preds = %2
  br label %162

59:                                               ; preds = %2
  %60 = load i32, ptr %4, align 4
  %61 = load ptr, ptr %3, align 8
  %62 = getelementptr inbounds nuw %struct.FieldSelect, ptr %61, i32 0, i32 5
  store i32 %60, ptr %62, align 4
  br label %162

63:                                               ; preds = %2
  br label %162

64:                                               ; preds = %2
  %65 = load i32, ptr %4, align 4
  %66 = load ptr, ptr %3, align 8
  %67 = getelementptr inbounds nuw %struct.RelabelType, ptr %66, i32 0, i32 4
  store i32 %65, ptr %67, align 8
  br label %162

68:                                               ; preds = %2
  %69 = load i32, ptr %4, align 4
  %70 = load ptr, ptr %3, align 8
  %71 = getelementptr inbounds nuw %struct.CoerceViaIO, ptr %70, i32 0, i32 3
  store i32 %69, ptr %71, align 4
  br label %162

72:                                               ; preds = %2
  %73 = load i32, ptr %4, align 4
  %74 = load ptr, ptr %3, align 8
  %75 = getelementptr inbounds nuw %struct.ArrayCoerceExpr, ptr %74, i32 0, i32 5
  store i32 %73, ptr %75, align 8
  br label %162

76:                                               ; preds = %2
  br label %162

77:                                               ; preds = %2
  %78 = load i32, ptr %4, align 4
  %79 = load ptr, ptr %3, align 8
  %80 = getelementptr inbounds nuw %struct.CaseExpr, ptr %79, i32 0, i32 2
  store i32 %78, ptr %80, align 8
  br label %162

81:                                               ; preds = %2
  %82 = load i32, ptr %4, align 4
  %83 = load ptr, ptr %3, align 8
  %84 = getelementptr inbounds nuw %struct.ArrayExpr, ptr %83, i32 0, i32 2
  store i32 %82, ptr %84, align 8
  br label %162

85:                                               ; preds = %2
  br label %162

86:                                               ; preds = %2
  br label %162

87:                                               ; preds = %2
  %88 = load i32, ptr %4, align 4
  %89 = load ptr, ptr %3, align 8
  %90 = getelementptr inbounds nuw %struct.CoalesceExpr, ptr %89, i32 0, i32 2
  store i32 %88, ptr %90, align 8
  br label %162

91:                                               ; preds = %2
  %92 = load i32, ptr %4, align 4
  %93 = load ptr, ptr %3, align 8
  %94 = getelementptr inbounds nuw %struct.MinMaxExpr, ptr %93, i32 0, i32 2
  store i32 %92, ptr %94, align 8
  br label %162

95:                                               ; preds = %2
  br label %162

96:                                               ; preds = %2
  br label %162

97:                                               ; preds = %2
  %98 = load ptr, ptr %3, align 8
  %99 = getelementptr inbounds nuw %struct.JsonValueExpr, ptr %98, i32 0, i32 2
  %100 = load ptr, ptr %99, align 8
  %101 = load i32, ptr %4, align 4
  call void @exprSetCollation(ptr noundef %100, i32 noundef %101)
  br label %162

102:                                              ; preds = %2
  call void @llvm.lifetime.start.p0(i64 8, ptr %5) #7
  %103 = load ptr, ptr %3, align 8
  store ptr %103, ptr %5, align 8
  %104 = load ptr, ptr %5, align 8
  %105 = getelementptr inbounds nuw %struct.JsonConstructorExpr, ptr %104, i32 0, i32 4
  %106 = load ptr, ptr %105, align 8
  %107 = icmp ne ptr %106, null
  br i1 %107, label %108, label %113

108:                                              ; preds = %102
  %109 = load ptr, ptr %5, align 8
  %110 = getelementptr inbounds nuw %struct.JsonConstructorExpr, ptr %109, i32 0, i32 4
  %111 = load ptr, ptr %110, align 8
  %112 = load i32, ptr %4, align 4
  call void @exprSetCollation(ptr noundef %111, i32 noundef %112)
  br label %114

113:                                              ; preds = %102
  br label %114

114:                                              ; preds = %113, %108
  call void @llvm.lifetime.end.p0(i64 8, ptr %5) #7
  br label %162

115:                                              ; preds = %2
  br label %162

116:                                              ; preds = %2
  call void @llvm.lifetime.start.p0(i64 8, ptr %6) #7
  %117 = load ptr, ptr %3, align 8
  store ptr %117, ptr %6, align 8
  %118 = load i32, ptr %4, align 4
  %119 = load ptr, ptr %6, align 8
  %120 = getelementptr inbounds nuw %struct.JsonExpr, ptr %119, i32 0, i32 15
  store i32 %118, ptr %120, align 4
  call void @llvm.lifetime.end.p0(i64 8, ptr %6) #7
  br label %162

121:                                              ; preds = %2
  call void @llvm.lifetime.start.p0(i64 8, ptr %7) #7
  %122 = load ptr, ptr %3, align 8
  store ptr %122, ptr %7, align 8
  %123 = load ptr, ptr %7, align 8
  %124 = getelementptr inbounds nuw %struct.JsonBehavior, ptr %123, i32 0, i32 2
  %125 = load ptr, ptr %124, align 8
  %126 = icmp ne ptr %125, null
  br i1 %126, label %127, label %132

127:                                              ; preds = %121
  %128 = load ptr, ptr %7, align 8
  %129 = getelementptr inbounds nuw %struct.JsonBehavior, ptr %128, i32 0, i32 2
  %130 = load ptr, ptr %129, align 8
  %131 = load i32, ptr %4, align 4
  call void @exprSetCollation(ptr noundef %130, i32 noundef %131)
  br label %132

132:                                              ; preds = %127, %121
  call void @llvm.lifetime.end.p0(i64 8, ptr %7) #7
  br label %162

133:                                              ; preds = %2
  br label %162

134:                                              ; preds = %2
  br label %162

135:                                              ; preds = %2
  %136 = load i32, ptr %4, align 4
  %137 = load ptr, ptr %3, align 8
  %138 = getelementptr inbounds nuw %struct.CoerceToDomain, ptr %137, i32 0, i32 4
  store i32 %136, ptr %138, align 8
  br label %162

139:                                              ; preds = %2
  %140 = load i32, ptr %4, align 4
  %141 = load ptr, ptr %3, align 8
  %142 = getelementptr inbounds nuw %struct.CoerceToDomainValue, ptr %141, i32 0, i32 3
  store i32 %140, ptr %142, align 4
  br label %162

143:                                              ; preds = %2
  %144 = load i32, ptr %4, align 4
  %145 = load ptr, ptr %3, align 8
  %146 = getelementptr inbounds nuw %struct.SetToDefault, ptr %145, i32 0, i32 3
  store i32 %144, ptr %146, align 4
  br label %162

147:                                              ; preds = %2
  br label %162

148:                                              ; preds = %2
  br label %162

149:                                              ; preds = %2
  br label %150

150:                                              ; preds = %149
  br i1 true, label %151, label %153

151:                                              ; preds = %150
  %152 = call zeroext i1 @errstart_cold(i32 noundef 21, ptr noundef null) #8
  br i1 %152, label %155, label %160

153:                                              ; preds = %150
  %154 = call zeroext i1 @errstart(i32 noundef 21, ptr noundef null)
  br i1 %154, label %155, label %160

155:                                              ; preds = %153, %151
  %156 = load ptr, ptr %3, align 8
  %157 = getelementptr inbounds nuw %struct.Node, ptr %156, i32 0, i32 0
  %158 = load i32, ptr %157, align 4
  %159 = call i32 (ptr, ...) @errmsg_internal(ptr noundef @.str.3, i32 noundef %158)
  call void @errfinish(ptr noundef @.str.1, i32 noundef 1310, ptr noundef @__func__.exprSetCollation)
  br label %160

160:                                              ; preds = %155, %153, %151
  unreachable

161:                                              ; No predecessors!
  br label %162

162:                                              ; preds = %161, %148, %147, %143, %139, %135, %134, %133, %132, %116, %115, %2, %114, %97, %96, %95, %91, %87, %86, %85, %81, %77, %76, %72, %68, %64, %63, %59, %58, %57, %53, %49, %45, %44, %40, %36, %32, %28, %27, %23, %19, %15, %11
  ret void
}