; Function Attrs: nounwind uwtable
define dso_local void @exprSetCollation(ptr noundef captures(none) %0, i32 noundef %1) local_unnamed_addr #0 {
  br label %tailrecurse

tailrecurse:                                      ; preds = %tailrecurse.backedge, %2
  %.tr = phi ptr [ %0, %2 ], [ %.tr.be, %tailrecurse.backedge ]
  %3 = load i32, ptr %.tr, align 4
  switch i32 %3, label %59 [
    i32 6, label %4
    i32 7, label %6
    i32 8, label %8
    i32 9, label %10
    i32 10, label %.loopexit
    i32 11, label %12
    i32 13, label %14
    i32 14, label %16
    i32 15, label %18
    i32 16, label %.loopexit
    i32 17, label %20
    i32 18, label %22
    i32 19, label %24
    i32 20, label %.loopexit
    i32 21, label %.loopexit
    i32 22, label %.loopexit
    i32 25, label %26
    i32 26, label %.loopexit
    i32 27, label %28
    i32 28, label %30
    i32 29, label %32
    i32 30, label %.loopexit
    i32 32, label %34
    i32 35, label %36
    i32 36, label %.loopexit
    i32 37, label %.loopexit
    i32 38, label %38
    i32 39, label %40
    i32 40, label %.loopexit
    i32 41, label %.loopexit
    i32 44, label %42
    i32 45, label %45
    i32 46, label %.loopexit
    i32 48, label %48
    i32 47, label %50
    i32 52, label %.loopexit
    i32 53, label %.loopexit
    i32 55, label %53
    i32 56, label %55
    i32 57, label %57
    i32 58, label %.loopexit
    i32 59, label %.loopexit
  ]

4:                                                ; preds = %tailrecurse
  %5 = getelementptr inbounds nuw i8, ptr %.tr, i64 20
  store i32 %1, ptr %5, align 4
  br label %.loopexit

6:                                                ; preds = %tailrecurse
  %7 = getelementptr inbounds nuw i8, ptr %.tr, i64 12
  store i32 %1, ptr %7, align 4
  br label %.loopexit

8:                                                ; preds = %tailrecurse
  %9 = getelementptr inbounds nuw i8, ptr %.tr, i64 20
  store i32 %1, ptr %9, align 4
  br label %.loopexit

10:                                               ; preds = %tailrecurse
  %11 = getelementptr inbounds nuw i8, ptr %.tr, i64 12
  store i32 %1, ptr %11, align 4
  br label %.loopexit

12:                                               ; preds = %tailrecurse
  %13 = getelementptr inbounds nuw i8, ptr %.tr, i64 12
  store i32 %1, ptr %13, align 4
  br label %.loopexit

14:                                               ; preds = %tailrecurse
  %15 = getelementptr inbounds nuw i8, ptr %.tr, i64 8
  store i32 %1, ptr %15, align 4
  br label %.loopexit

16:                                               ; preds = %tailrecurse
  %17 = getelementptr inbounds nuw i8, ptr %.tr, i64 20
  store i32 %1, ptr %17, align 4
  br label %.loopexit

18:                                               ; preds = %tailrecurse
  %19 = getelementptr inbounds nuw i8, ptr %.tr, i64 20
  store i32 %1, ptr %19, align 4
  br label %.loopexit

20:                                               ; preds = %tailrecurse
  %21 = getelementptr inbounds nuw i8, ptr %.tr, i64 20
  store i32 %1, ptr %21, align 4
  br label %.loopexit

22:                                               ; preds = %tailrecurse
  %23 = getelementptr inbounds nuw i8, ptr %.tr, i64 20
  store i32 %1, ptr %23, align 4
  br label %.loopexit

24:                                               ; preds = %tailrecurse
  %25 = getelementptr inbounds nuw i8, ptr %.tr, i64 20
  store i32 %1, ptr %25, align 4
  br label %.loopexit

26:                                               ; preds = %tailrecurse
  %27 = getelementptr inbounds nuw i8, ptr %.tr, i64 28
  store i32 %1, ptr %27, align 4
  br label %.loopexit

28:                                               ; preds = %tailrecurse
  %29 = getelementptr inbounds nuw i8, ptr %.tr, i64 24
  store i32 %1, ptr %29, align 8
  br label %.loopexit

30:                                               ; preds = %tailrecurse
  %31 = getelementptr inbounds nuw i8, ptr %.tr, i64 20
  store i32 %1, ptr %31, align 4
  br label %.loopexit

32:                                               ; preds = %tailrecurse
  %33 = getelementptr inbounds nuw i8, ptr %.tr, i64 32
  store i32 %1, ptr %33, align 8
  br label %.loopexit

34:                                               ; preds = %tailrecurse
  %35 = getelementptr inbounds nuw i8, ptr %.tr, i64 8
  store i32 %1, ptr %35, align 8
  br label %.loopexit

36:                                               ; preds = %tailrecurse
  %37 = getelementptr inbounds nuw i8, ptr %.tr, i64 8
  store i32 %1, ptr %37, align 8
  br label %.loopexit

38:                                               ; preds = %tailrecurse
  %39 = getelementptr inbounds nuw i8, ptr %.tr, i64 8
  store i32 %1, ptr %39, align 8
  br label %.loopexit

40:                                               ; preds = %tailrecurse
  %41 = getelementptr inbounds nuw i8, ptr %.tr, i64 8
  store i32 %1, ptr %41, align 8
  br label %.loopexit

42:                                               ; preds = %tailrecurse
  %43 = getelementptr inbounds nuw i8, ptr %.tr, i64 16
  %44 = load ptr, ptr %43, align 8
  br label %tailrecurse.backedge

tailrecurse.backedge:                             ; preds = %42, %45, %50
  %.tr.be = phi ptr [ %44, %42 ], [ %47, %45 ], [ %52, %50 ]
  br label %tailrecurse

45:                                               ; preds = %tailrecurse
  %46 = getelementptr inbounds nuw i8, ptr %.tr, i64 24
  %47 = load ptr, ptr %46, align 8
  %.not59 = icmp eq ptr %47, null
  br i1 %.not59, label %.loopexit, label %tailrecurse.backedge

48:                                               ; preds = %tailrecurse
  %49 = getelementptr inbounds nuw i8, ptr %.tr, i64 92
  store i32 %1, ptr %49, align 4
  br label %.loopexit

50:                                               ; preds = %tailrecurse
  %51 = getelementptr inbounds nuw i8, ptr %.tr, i64 8
  %52 = load ptr, ptr %51, align 8
  %.not = icmp eq ptr %52, null
  br i1 %.not, label %.loopexit, label %tailrecurse.backedge

53:                                               ; preds = %tailrecurse
  %54 = getelementptr inbounds nuw i8, ptr %.tr, i64 24
  store i32 %1, ptr %54, align 8
  br label %.loopexit

55:                                               ; preds = %tailrecurse
  %56 = getelementptr inbounds nuw i8, ptr %.tr, i64 12
  store i32 %1, ptr %56, align 4
  br label %.loopexit

57:                                               ; preds = %tailrecurse
  %58 = getelementptr inbounds nuw i8, ptr %.tr, i64 12
  store i32 %1, ptr %58, align 4
  br label %.loopexit

59:                                               ; preds = %tailrecurse
  %60 = tail call zeroext i1 @errstart_cold(i32 noundef 21, ptr noundef null) #12
  tail call void @llvm.assume(i1 %60)
  %61 = load i32, ptr %.tr, align 4
  %62 = tail call i32 (ptr, ...) @errmsg_internal(ptr noundef nonnull @.str.3, i32 noundef %61) #13
  tail call void @errfinish(ptr noundef nonnull @.str.1, i32 noundef 1310, ptr noundef nonnull @__func__.exprSetCollation) #13
  unreachable

.loopexit:                                        ; preds = %50, %45, %tailrecurse, %tailrecurse, %tailrecurse, %tailrecurse, %tailrecurse, %tailrecurse, %tailrecurse, %tailrecurse, %tailrecurse, %tailrecurse, %tailrecurse, %tailrecurse, %tailrecurse, %tailrecurse, %tailrecurse, %tailrecurse, %57, %55, %53, %48, %40, %38, %36, %34, %32, %30, %28, %26, %24, %22, %20, %18, %16, %14, %12, %10, %8, %6, %4
  ret void
}